target datalayout = "e-m:e-p270:32:32-p271:32:32-p272:64:64-i64:64-i128:128-f80:128-n8:16:32:64-S128"
target triple = "x86_64-pc-linux-gnu"

%struct.nghttp2_map = type { ptr, ptr, i64, i32, i32 }
%struct.nghttp2_map_bucket = type { i32, i32, ptr }

; Function Attrs: nounwind uwtable
define internal i64 @distance(i32 noundef %0, i32 noundef %1, ptr noundef %2, i64 noundef %3) #0 {
  %5 = alloca i32, align 4
  %6 = alloca i32, align 4
  %7 = alloca ptr, align 8
  %8 = alloca i64, align 8
  store i32 %0, ptr %5, align 4
  store i32 %1, ptr %6, align 4
  store ptr %2, ptr %7, align 8
  store i64 %3, ptr %8, align 8
  %9 = load i64, ptr %8, align 8
  %10 = load ptr, ptr %7, align 8
  %11 = getelementptr inbounds %struct.nghttp2_map_bucket, ptr %10, i32 0, i32 0
  %12 = load i32, ptr %11, align 8
  %13 = load i32, ptr %6, align 4
  %14 = call i64 @h2idx(i32 noundef %12, i32 noundef %13)
  %15 = sub i64 %9, %14
  %16 = load i32, ptr %5, align 4
  %17 = sub i32 %16, 1
  %18 = zext i32 %17 to i64
  %19 = and i64 %15, %18
  ret i64 %19
}

; Function Attrs: nounwind uwtable
define internal i64 @h2idx(i32 noundef %0, i32 noundef %1) #0 {
  %3 = alloca i32, align 4
  %4 = alloca i32, align 4
  store i32 %0, ptr %3, align 4
  store i32 %1, ptr %4, align 4
  %5 = load i32, ptr %3, align 4
  %6 = load i32, ptr %4, align 4
  %7 = sub i32 32, %6
  %8 = lshr i32 %5, %7
  %9 = zext i32 %8 to i64
  ret i64 %9
}

; Function Attrs: nounwind uwtable
define internal i32 @hash(i32 noundef %0) #0 {
  %2 = alloca i32, align 4
  store i32 %0, ptr %2, align 4
  %3 = load i32, ptr %2, align 4
  %4 = mul i32 %3, -1640531527
  ret i32 %4
}

; Function Attrs: nounwind uwtable
define dso_local ptr @nghttp2_map_find(ptr noundef %0, i32 noundef %1) #0 {
  %3 = alloca ptr, align 8
  %4 = alloca ptr, align 8
  %5 = alloca i32, align 4
  %6 = alloca i32, align 4
  %7 = alloca i64, align 8
  %8 = alloca ptr, align 8
  %9 = alloca i64, align 8
  store ptr %0, ptr %4, align 8
  store i32 %1, ptr %5, align 4
  %10 = load i32, ptr %5, align 4
  %11 = call i32 @hash(i32 noundef %10)
  store i32 %11, ptr %6, align 4
  %12 = load i32, ptr %6, align 4
  %13 = load ptr, ptr %4, align 8
  %14 = getelementptr inbounds %struct.nghttp2_map, ptr %13, i32 0, i32 4
  %15 = load i32, ptr %14, align 4
  %16 = call i64 @h2idx(i32 noundef %12, i32 noundef %15)
  store i64 %16, ptr %7, align 8
  store i64 0, ptr %9, align 8
  br label %17

17:                                               ; preds = %50, %2
  %18 = load ptr, ptr %4, align 8
  %19 = getelementptr inbounds %struct.nghttp2_map, ptr %18, i32 0, i32 0
  %20 = load ptr, ptr %19, align 8
  %21 = load i64, ptr %7, align 8
  %22 = getelementptr inbounds %struct.nghttp2_map_bucket, ptr %20, i64 %21
  store ptr %22, ptr %8, align 8
  %23 = load ptr, ptr %8, align 8
  %24 = getelementptr inbounds %struct.nghttp2_map_bucket, ptr %23, i32 0, i32 2
  %25 = load ptr, ptr %24, align 8
  %26 = icmp eq ptr %25, null
  br i1 %26, label %39, label %27

27:                                               ; preds = %17
  %28 = load i64, ptr %9, align 8
  %29 = load ptr, ptr %4, align 8
  %30 = getelementptr inbounds %struct.nghttp2_map, ptr %29, i32 0, i32 3
  %31 = load i32, ptr %30, align 8
  %32 = load ptr, ptr %4, align 8
  %33 = getelementptr inbounds %struct.nghttp2_map, ptr %32, i32 0, i32 4
  %34 = load i32, ptr %33, align 4
  %35 = load ptr, ptr %8, align 8
  %36 = load i64, ptr %7, align 8
  %37 = call i64 @distance(i32 noundef %31, i32 noundef %34, ptr noundef %35, i64 noundef %36)
  %38 = icmp ugt i64 %28, %37
  br i1 %38, label %39, label %40

39:                                               ; preds = %27, %17
  store ptr null, ptr %3, align 8
  br label %61

40:                                               ; preds = %27
  %41 = load ptr, ptr %8, align 8
  %42 = getelementptr inbounds %struct.nghttp2_map_bucket, ptr %41, i32 0, i32 1
  %43 = load i32, ptr %42, align 4
  %44 = load i32, ptr %5, align 4
  %45 = icmp eq i32 %43, %44
  br i1 %45, label %46, label %50

46:                                               ; preds = %40
  %47 = load ptr, ptr %8, align 8
  %48 = getelementptr inbounds %struct.nghttp2_map_bucket, ptr %47, i32 0, i32 2
  %49 = load ptr, ptr %48, align 8
  store ptr %49, ptr %3, align 8
  br label %61

50:                                               ; preds = %40
  %51 = load i64, ptr %9, align 8
  %52 = add i64 %51, 1
  store i64 %52, ptr %9, align 8
  %53 = load i64, ptr %7, align 8
  %54 = add i64 %53, 1
  %55 = load ptr, ptr %4, align 8
  %56 = getelementptr inbounds %struct.nghttp2_map, ptr %55, i32 0, i32 3
  %57 = load i32, ptr %56, align 8
  %58 = sub i32 %57, 1
  %59 = zext i32 %58 to i64
  %60 = and i64 %54, %59
  store i64 %60, ptr %7, align 8
  br label %17

61:                                               ; preds = %46, %39
  %62 = load ptr, ptr %3, align 8
  ret ptr %62
}