; Function Attrs: nofree norecurse nosync nounwind memory(read, inaccessiblemem: none) uwtable
define dso_local ptr @nghttp2_map_find(ptr noundef readonly captures(none) %0, i32 noundef %1) local_unnamed_addr #4 {
  %3 = mul i32 %1, -1640531527
  %4 = getelementptr inbounds nuw i8, ptr %0, i64 28
  %5 = load i32, ptr %4, align 4
  %6 = sub i32 32, %5
  %7 = lshr i32 %3, %6
  %8 = zext i32 %7 to i64
  %9 = load ptr, ptr %0, align 8
  %10 = getelementptr inbounds nuw %struct.nghttp2_map_bucket, ptr %9, i64 %8, i32 2
  %11 = load ptr, ptr %10, align 8
  %12 = icmp eq ptr %11, null
  br i1 %12, label %._crit_edge, label %.lr.ph

.lr.ph:                                           ; preds = %2
  %13 = getelementptr inbounds nuw i8, ptr %0, i64 24
  %14 = load i32, ptr %13, align 8
  %15 = add i32 %14, -1
  %16 = zext i32 %15 to i64
  br label %23

17:                                               ; preds = %28
  %18 = add nuw nsw i64 %.02026, 1
  %.val = load i32, ptr %31, align 8
  %19 = lshr i32 %.val, %6
  %20 = zext i32 %19 to i64
  %21 = sub nsw i64 %30, %20
  %22 = and i64 %21, %16
  %.not = icmp samesign ult i64 %.02026, %22
  br i1 %.not, label %23, label %._crit_edge

23:                                               ; preds = %.lr.ph, %17
  %.0181927 = phi i64 [ %8, %.lr.ph ], [ %30, %17 ]
  %.02026 = phi i64 [ 0, %.lr.ph ], [ %18, %17 ]
  %24 = phi ptr [ %11, %.lr.ph ], [ %33, %17 ]
  %25 = getelementptr inbounds nuw %struct.nghttp2_map_bucket, ptr %9, i64 %.0181927, i32 1
  %26 = load i32, ptr %25, align 4
  %27 = icmp eq i32 %26, %1
  br i1 %27, label %._crit_edge, label %28

28:                                               ; preds = %23
  %29 = add nuw nsw i64 %.0181927, 1
  %30 = and i64 %29, %16
  %31 = getelementptr inbounds nuw %struct.nghttp2_map_bucket, ptr %9, i64 %30
  %32 = getelementptr inbounds nuw i8, ptr %31, i64 8
  %33 = load ptr, ptr %32, align 8
  %34 = icmp eq ptr %33, null
  br i1 %34, label %._crit_edge, label %17

._crit_edge:                                      ; preds = %17, %28, %23, %2
  %.017 = phi ptr [ null, %2 ], [ %24, %23 ], [ null, %28 ], [ null, %17 ]
  ret ptr %.017
}